target datalayout = "e-m:e-p270:32:32-p271:32:32-p272:64:64-i64:64-i128:128-f80:128-n8:16:32:64-S128"
target triple = "x86_64-pc-linux-gnu"

; Function Attrs: nounwind uwtable
define dso_local i64 @mp_sub(ptr noundef %0, ptr noundef %1, ptr noundef %2, i64 noundef %3, i64 noundef %4) #0 {
  %6 = alloca ptr, align 8
  %7 = alloca ptr, align 8
  %8 = alloca ptr, align 8
  %9 = alloca i64, align 8
  %10 = alloca i64, align 8
  %11 = alloca i32, align 4
  %12 = alloca i64, align 8
  %13 = alloca i64, align 8
  %14 = alloca i64, align 8
  %15 = alloca i64, align 8
  store ptr %0, ptr %6, align 8, !tbaa !28
  store ptr %1, ptr %7, align 8, !tbaa !28
  store ptr %2, ptr %8, align 8, !tbaa !28
  store i64 %3, ptr %9, align 8, !tbaa !27
  store i64 %4, ptr %10, align 8, !tbaa !27
  call void @llvm.lifetime.start.p0(i64 4, ptr %11) #10
  call void @llvm.lifetime.start.p0(i64 8, ptr %12) #10
  call void @llvm.lifetime.start.p0(i64 8, ptr %13) #10
  call void @llvm.lifetime.start.p0(i64 8, ptr %14) #10
  call void @llvm.lifetime.start.p0(i64 8, ptr %15) #10
  %16 = load i64, ptr %10, align 8, !tbaa !27
  store i64 %16, ptr %12, align 8, !tbaa !27
  store i32 0, ptr %11, align 4, !tbaa !29
  br label %17

17:                                               ; preds = %55, %5
  %18 = load i32, ptr %11, align 4, !tbaa !29
  %19 = sext i32 %18 to i64
  %20 = load i64, ptr %9, align 8, !tbaa !27
  %21 = icmp slt i64 %19, %20
  br i1 %21, label %22, label %58

22:                                               ; preds = %17
  %23 = load ptr, ptr %7, align 8, !tbaa !28
  %24 = load i32, ptr %11, align 4, !tbaa !29
  %25 = sext i32 %24 to i64
  %26 = getelementptr inbounds i64, ptr %23, i64 %25
  %27 = load i64, ptr %26, align 8, !tbaa !27
  store i64 %27, ptr %14, align 8, !tbaa !27
  %28 = load i64, ptr %14, align 8, !tbaa !27
  %29 = load ptr, ptr %8, align 8, !tbaa !28
  %30 = load i32, ptr %11, align 4, !tbaa !29
  %31 = sext i32 %30 to i64
  %32 = getelementptr inbounds i64, ptr %29, i64 %31
  %33 = load i64, ptr %32, align 8, !tbaa !27
  %34 = sub i64 %28, %33
  store i64 %34, ptr %13, align 8, !tbaa !27
  %35 = load i64, ptr %13, align 8, !tbaa !27
  %36 = load i64, ptr %14, align 8, !tbaa !27
  %37 = icmp ugt i64 %35, %36
  %38 = zext i1 %37 to i32
  %39 = sext i32 %38 to i64
  store i64 %39, ptr %15, align 8, !tbaa !27
  %40 = load i64, ptr %13, align 8, !tbaa !27
  %41 = load i64, ptr %12, align 8, !tbaa !27
  %42 = sub i64 %40, %41
  store i64 %42, ptr %14, align 8, !tbaa !27
  %43 = load i64, ptr %14, align 8, !tbaa !27
  %44 = load i64, ptr %13, align 8, !tbaa !27
  %45 = icmp ugt i64 %43, %44
  %46 = zext i1 %45 to i32
  %47 = sext i32 %46 to i64
  %48 = load i64, ptr %15, align 8, !tbaa !27
  %49 = or i64 %47, %48
  store i64 %49, ptr %12, align 8, !tbaa !27
  %50 = load i64, ptr %14, align 8, !tbaa !27
  %51 = load ptr, ptr %6, align 8, !tbaa !28
  %52 = load i32, ptr %11, align 4, !tbaa !29
  %53 = sext i32 %52 to i64
  %54 = getelementptr inbounds i64, ptr %51, i64 %53
  store i64 %50, ptr %54, align 8, !tbaa !27
  br label %55

55:                                               ; preds = %22
  %56 = load i32, ptr %11, align 4, !tbaa !29
  %57 = add i32 %56, 1
  store i32 %57, ptr %11, align 4, !tbaa !29
  br label %17, !llvm.loop !47

58:                                               ; preds = %17
  %59 = load i64, ptr %12, align 8, !tbaa !27
  call void @llvm.lifetime.end.p0(i64 8, ptr %15) #10
  call void @llvm.lifetime.end.p0(i64 8, ptr %14) #10
  call void @llvm.lifetime.end.p0(i64 8, ptr %13) #10
  call void @llvm.lifetime.end.p0(i64 8, ptr %12) #10
  call void @llvm.lifetime.end.p0(i64 4, ptr %11) #10
  ret i64 %59
}