; Function Attrs: nofree norecurse nosync nounwind memory(argmem: readwrite) uwtable
define dso_local i64 @mp_sub(ptr noundef writeonly captures(none) %0, ptr noundef readonly captures(none) %1, ptr noundef readonly captures(none) %2, i64 noundef %3, i64 noundef %4) local_unnamed_addr #8 {
  %6 = icmp sgt i64 %3, 0
  br i1 %6, label %.lr.ph, label %._crit_edge

.lr.ph:                                           ; preds = %5, %.lr.ph
  %7 = phi i64 [ %20, %.lr.ph ], [ 0, %5 ]
  %.022 = phi i32 [ %19, %.lr.ph ], [ 0, %5 ]
  %.01921 = phi i64 [ %17, %.lr.ph ], [ %4, %5 ]
  %8 = getelementptr inbounds i64, ptr %1, i64 %7
  %9 = load i64, ptr %8, align 8, !tbaa !33
  %10 = getelementptr inbounds i64, ptr %2, i64 %7
  %11 = load i64, ptr %10, align 8, !tbaa !33
  %12 = sub i64 %9, %11
  %13 = icmp ugt i64 %11, %9
  %14 = sub i64 %12, %.01921
  %15 = icmp ugt i64 %.01921, %12
  %16 = or i1 %13, %15
  %17 = zext i1 %16 to i64
  %18 = getelementptr inbounds i64, ptr %0, i64 %7
  store i64 %14, ptr %18, align 8, !tbaa !33
  %19 = add i32 %.022, 1
  %20 = sext i32 %19 to i64
  %21 = icmp sgt i64 %3, %20
  br i1 %21, label %.lr.ph, label %._crit_edge, !llvm.loop !52

._crit_edge:                                      ; preds = %.lr.ph, %5
  %.019.lcssa = phi i64 [ %4, %5 ], [ %17, %.lr.ph ]
  ret i64 %.019.lcssa
}